target datalayout = "e-m:e-p270:32:32-p271:32:32-p272:64:64-i64:64-i128:128-f80:128-n8:16:32:64-S128"
target triple = "x86_64-pc-linux-gnu"

@.str.3 = private unnamed_addr constant [2 x i8] c"\0A\00", align 1
@.str.4 = private unnamed_addr constant [38 x i8] c"    async2sync [options] [selection]\0A\00", align 1
@.str.5 = private unnamed_addr constant [77 x i8] c"This command replaces async FF inputs with sync circuits emulating the same\0A\00", align 1
@.str.6 = private unnamed_addr constant [77 x i8] c"behavior for when the async signals are actually synchronized to the clock.\0A\00", align 1
@.str.7 = private unnamed_addr constant [80 x i8] c"This pass assumes negative hold time for the async FF inputs. For example when\0A\00", align 1
@.str.8 = private unnamed_addr constant [80 x i8] c"a reset deasserts with the clock edge, then the FF output will still drive the\0A\00", align 1
@.str.9 = private unnamed_addr constant [78 x i8] c"reset value in the next cycle regardless of the data-in value at the time of\0A\00", align 1
@.str.10 = private unnamed_addr constant [17 x i8] c"the clock edge.\0A\00", align 1
@.str.11 = private unnamed_addr constant [14 x i8] c"    -nolower\0A\00", align 1
@.str.12 = private unnamed_addr constant [75 x i8] c"        Do not automatically run 'chformal -lower' to lower $check cells.\0A\00", align 1

; Function Attrs: mustprogress uwtable
define internal void @_ZN12_GLOBAL__N_114Async2syncPass4helpEv(ptr noundef nonnull align 8 dereferenceable(104) %0) unnamed_addr #4 align 2 {
  %2 = alloca ptr, align 8
  store ptr %0, ptr %2, align 8
  call void (ptr, ...) @_ZN5Yosys3logEPKcz(ptr noundef @.str.3)
  call void (ptr, ...) @_ZN5Yosys3logEPKcz(ptr noundef @.str.4)
  call void (ptr, ...) @_ZN5Yosys3logEPKcz(ptr noundef @.str.3)
  call void (ptr, ...) @_ZN5Yosys3logEPKcz(ptr noundef @.str.5)
  call void (ptr, ...) @_ZN5Yosys3logEPKcz(ptr noundef @.str.6)
  call void (ptr, ...) @_ZN5Yosys3logEPKcz(ptr noundef @.str.3)
  call void (ptr, ...) @_ZN5Yosys3logEPKcz(ptr noundef @.str.7)
  call void (ptr, ...) @_ZN5Yosys3logEPKcz(ptr noundef @.str.8)
  call void (ptr, ...) @_ZN5Yosys3logEPKcz(ptr noundef @.str.9)
  call void (ptr, ...) @_ZN5Yosys3logEPKcz(ptr noundef @.str.10)
  call void (ptr, ...) @_ZN5Yosys3logEPKcz(ptr noundef @.str.3)
  call void (ptr, ...) @_ZN5Yosys3logEPKcz(ptr noundef @.str.11)
  call void (ptr, ...) @_ZN5Yosys3logEPKcz(ptr noundef @.str.12)
  call void (ptr, ...) @_ZN5Yosys3logEPKcz(ptr noundef @.str.3)
  ret void
}